target datalayout = "e-m:e-p270:32:32-p271:32:32-p272:64:64-i64:64-i128:128-f80:128-n8:16:32:64-S128"
target triple = "x86_64-pc-linux-gnu"

; Function Attrs: alwaysinline nounwind
define internal ptr @memcpy.inline(ptr noalias %0, ptr noalias %1, i64 %2) #2 {
  %4 = alloca ptr, align 8
  %5 = alloca ptr, align 8
  %6 = alloca i64, align 8
  store ptr %0, ptr %4, align 8
  store ptr %1, ptr %5, align 8
  store i64 %2, ptr %6, align 8
  %7 = load ptr, ptr %4, align 8
  %8 = load ptr, ptr %5, align 8
  %9 = load i64, ptr %6, align 8
  %10 = load ptr, ptr %4, align 8
  %11 = call i64 @llvm.objectsize.i64.p0(ptr %10, i1 false, i1 true, i1 true)
  %12 = call ptr @__memcpy_chk(ptr noundef %7, ptr noundef %8, i64 noundef %9, i64 noundef %11) #16
  ret ptr %12
}

; Function Attrs: null_pointer_is_valid sspstrong uwtable
define internal i32 @Dot11DecryptRsnaPwd2PskStep(ptr noundef %0, i32 noundef %1, ptr noundef %2, i64 noundef %3, i32 noundef %4, i32 noundef %5, ptr noundef %6) #0 {
  %8 = alloca i32, align 4
  %9 = alloca ptr, align 8
  %10 = alloca i32, align 4
  %11 = alloca ptr, align 8
  %12 = alloca i64, align 8
  %13 = alloca i32, align 4
  %14 = alloca i32, align 4
  %15 = alloca ptr, align 8
  %16 = alloca [36 x i8], align 16
  %17 = alloca i32, align 4
  %18 = alloca i32, align 4
  %19 = alloca i32, align 4
  store ptr %0, ptr %9, align 8
  store i32 %1, ptr %10, align 4
  store ptr %2, ptr %11, align 8
  store i64 %3, ptr %12, align 8
  store i32 %4, ptr %13, align 4
  store i32 %5, ptr %14, align 4
  store ptr %6, ptr %15, align 8
  call void @llvm.lifetime.start.p0(i64 36, ptr %16) #16
  call void @llvm.memset.p0.i64(ptr align 16 %16, i8 0, i64 36, i1 false)
  call void @llvm.lifetime.start.p0(i64 4, ptr %17) #16
  call void @llvm.lifetime.start.p0(i64 4, ptr %18) #16
  %20 = load i64, ptr %12, align 8
  %21 = icmp ugt i64 %20, 32
  br i1 %21, label %22, label %23

22:                                               ; preds = %7
  store i32 1, ptr %8, align 4
  store i32 1, ptr %19, align 4
  br label %109

23:                                               ; preds = %7
  %24 = getelementptr inbounds [36 x i8], ptr %16, i64 0, i64 0
  %25 = load ptr, ptr %11, align 8
  %26 = load i64, ptr %12, align 8
  %27 = call ptr @memcpy.inline(ptr noundef %24, ptr noundef %25, i64 noundef %26) #16
  %28 = load i32, ptr %14, align 4
  %29 = ashr i32 %28, 24
  %30 = and i32 %29, 255
  %31 = trunc i32 %30 to i8
  %32 = load i64, ptr %12, align 8
  %33 = getelementptr [36 x i8], ptr %16, i64 0, i64 %32
  store i8 %31, ptr %33, align 1
  %34 = load i32, ptr %14, align 4
  %35 = ashr i32 %34, 16
  %36 = and i32 %35, 255
  %37 = trunc i32 %36 to i8
  %38 = load i64, ptr %12, align 8
  %39 = add i64 %38, 1
  %40 = getelementptr [36 x i8], ptr %16, i64 0, i64 %39
  store i8 %37, ptr %40, align 1
  %41 = load i32, ptr %14, align 4
  %42 = ashr i32 %41, 8
  %43 = and i32 %42, 255
  %44 = trunc i32 %43 to i8
  %45 = load i64, ptr %12, align 8
  %46 = add i64 %45, 2
  %47 = getelementptr [36 x i8], ptr %16, i64 0, i64 %46
  store i8 %44, ptr %47, align 1
  %48 = load i32, ptr %14, align 4
  %49 = and i32 %48, 255
  %50 = trunc i32 %49 to i8
  %51 = load i64, ptr %12, align 8
  %52 = add i64 %51, 3
  %53 = getelementptr [36 x i8], ptr %16, i64 0, i64 %52
  store i8 %50, ptr %53, align 1
  %54 = getelementptr inbounds [36 x i8], ptr %16, i64 0, i64 0
  %55 = getelementptr inbounds [36 x i8], ptr %16, i64 0, i64 0
  %56 = load i64, ptr %12, align 8
  %57 = trunc i64 %56 to i32
  %58 = add i32 %57, 4
  %59 = zext i32 %58 to i64
  %60 = load ptr, ptr %9, align 8
  %61 = load i32, ptr %10, align 4
  %62 = zext i32 %61 to i64
  %63 = call i32 @ws_hmac_buffer(i32 noundef 2, ptr noundef %54, ptr noundef %55, i64 noundef %59, ptr noundef %60, i64 noundef %62)
  %64 = icmp ne i32 %63, 0
  br i1 %64, label %65, label %66

65:                                               ; preds = %23
  store i32 1, ptr %8, align 4
  store i32 1, ptr %19, align 4
  br label %109

66:                                               ; preds = %23
  %67 = load ptr, ptr %15, align 8
  %68 = getelementptr inbounds [36 x i8], ptr %16, i64 0, i64 0
  %69 = call ptr @memcpy.inline(ptr noundef %67, ptr noundef %68, i64 noundef 20) #16
  store i32 1, ptr %17, align 4
  br label %70

70:                                               ; preds = %105, %66
  %71 = load i32, ptr %17, align 4
  %72 = load i32, ptr %13, align 4
  %73 = icmp slt i32 %71, %72
  br i1 %73, label %74, label %108

74:                                               ; preds = %70
  %75 = getelementptr inbounds [36 x i8], ptr %16, i64 0, i64 0
  %76 = getelementptr inbounds [36 x i8], ptr %16, i64 0, i64 0
  %77 = load ptr, ptr %9, align 8
  %78 = load i32, ptr %10, align 4
  %79 = zext i32 %78 to i64
  %80 = call i32 @ws_hmac_buffer(i32 noundef 2, ptr noundef %75, ptr noundef %76, i64 noundef 20, ptr noundef %77, i64 noundef %79)
  %81 = icmp ne i32 %80, 0
  br i1 %81, label %82, label %83

82:                                               ; preds = %74
  store i32 1, ptr %8, align 4
  store i32 1, ptr %19, align 4
  br label %109

83:                                               ; preds = %74
  store i32 0, ptr %18, align 4
  br label %84

84:                                               ; preds = %101, %83
  %85 = load i32, ptr %18, align 4
  %86 = icmp slt i32 %85, 20
  br i1 %86, label %87, label %104

87:                                               ; preds = %84
  %88 = load i32, ptr %18, align 4
  %89 = sext i32 %88 to i64
  %90 = getelementptr [36 x i8], ptr %16, i64 0, i64 %89
  %91 = load i8, ptr %90, align 1
  %92 = zext i8 %91 to i32
  %93 = load ptr, ptr %15, align 8
  %94 = load i32, ptr %18, align 4
  %95 = sext i32 %94 to i64
  %96 = getelementptr i8, ptr %93, i64 %95
  %97 = load i8, ptr %96, align 1
  %98 = zext i8 %97 to i32
  %99 = xor i32 %98, %92
  %100 = trunc i32 %99 to i8
  store i8 %100, ptr %96, align 1
  br label %101

101:                                              ; preds = %87
  %102 = load i32, ptr %18, align 4
  %103 = add i32 %102, 1
  store i32 %103, ptr %18, align 4
  br label %84, !llvm.loop !22

104:                                              ; preds = %84
  br label %105

105:                                              ; preds = %104
  %106 = load i32, ptr %17, align 4
  %107 = add i32 %106, 1
  store i32 %107, ptr %17, align 4
  br label %70, !llvm.loop !23

108:                                              ; preds = %70
  store i32 0, ptr %8, align 4
  store i32 1, ptr %19, align 4
  br label %109

109:                                              ; preds = %108, %82, %65, %22
  call void @llvm.lifetime.end.p0(i64 4, ptr %18) #16
  call void @llvm.lifetime.end.p0(i64 4, ptr %17) #16
  call void @llvm.lifetime.end.p0(i64 36, ptr %16) #16
  %110 = load i32, ptr %8, align 4
  ret i32 %110
}