; Function Attrs: null_pointer_is_valid sspstrong uwtable
define internal fastcc void @Dot11DecryptRsnaPwd2PskStep(ptr noundef %0, i32 noundef %1, ptr noundef readonly captures(none) %2, i64 noundef %3, i32 noundef range(i32 1, 3) %4, ptr noundef %5) unnamed_addr #0 {
  %7 = alloca [36 x i8], align 16
  call void @llvm.lifetime.start.p0(i64 36, ptr nonnull %7) #15
  call void @llvm.memset.p0.i64(ptr noundef nonnull align 16 dereferenceable(36) %7, i8 0, i64 36, i1 false)
  %8 = icmp ugt i64 %3, 32
  br i1 %8, label %.loopexit, label %9

9:                                                ; preds = %6
  %10 = call ptr @__memcpy_chk(ptr noundef nonnull %7, ptr noundef %2, i64 noundef %3, i64 noundef 36) #15, !alias.scope !55
  %11 = getelementptr [36 x i8], ptr %7, i64 0, i64 %3
  store i8 0, ptr %11, align 1
  %12 = add nuw nsw i64 %3, 1
  %13 = getelementptr [36 x i8], ptr %7, i64 0, i64 %12
  store i8 0, ptr %13, align 1
  %14 = add nuw nsw i64 %3, 2
  %15 = getelementptr [36 x i8], ptr %7, i64 0, i64 %14
  store i8 0, ptr %15, align 1
  %16 = trunc nuw nsw i32 %4 to i8
  %17 = add nuw nsw i64 %3, 3
  %18 = getelementptr [36 x i8], ptr %7, i64 0, i64 %17
  store i8 %16, ptr %18, align 1
  %19 = add nuw nsw i64 %3, 4
  %20 = zext i32 %1 to i64
  %21 = call i32 @ws_hmac_buffer(i32 noundef 2, ptr noundef nonnull %7, ptr noundef nonnull %7, i64 noundef %19, ptr noundef %0, i64 noundef %20)
  %.not = icmp eq i32 %21, 0
  br i1 %.not, label %22, label %.loopexit

22:                                               ; preds = %9
  call void @llvm.memcpy.p0.p0.i64(ptr noundef align 1 dereferenceable(20) %5, ptr noundef nonnull align 16 dereferenceable(20) %7, i64 noundef 20, i1 noundef false) #15
  br label %23

23:                                               ; preds = %22, %30
  %.02530 = phi i32 [ 1, %22 ], [ %31, %30 ]
  %24 = call i32 @ws_hmac_buffer(i32 noundef 2, ptr noundef nonnull %7, ptr noundef nonnull %7, i64 noundef 20, ptr noundef %0, i64 noundef %20)
  %.not28 = icmp eq i32 %24, 0
  br i1 %.not28, label %.preheader, label %.loopexit

.preheader:                                       ; preds = %23, %.preheader
  %indvars.iv = phi i64 [ %indvars.iv.next, %.preheader ], [ 0, %23 ]
  %25 = getelementptr [36 x i8], ptr %7, i64 0, i64 %indvars.iv
  %26 = load i8, ptr %25, align 1
  %27 = getelementptr i8, ptr %5, i64 %indvars.iv
  %28 = load i8, ptr %27, align 1
  %29 = xor i8 %28, %26
  store i8 %29, ptr %27, align 1
  %indvars.iv.next = add nuw nsw i64 %indvars.iv, 1
  %exitcond.not = icmp eq i64 %indvars.iv.next, 20
  br i1 %exitcond.not, label %30, label %.preheader, !llvm.loop !59

30:                                               ; preds = %.preheader
  %31 = add nuw nsw i32 %.02530, 1
  %exitcond32.not = icmp eq i32 %31, 4096
  br i1 %exitcond32.not, label %.loopexit, label %23, !llvm.loop !60

.loopexit:                                        ; preds = %30, %23, %9, %6
  call void @llvm.lifetime.end.p0(i64 36, ptr nonnull %7) #15
  ret void
}